target datalayout = "e-m:e-p270:32:32-p271:32:32-p272:64:64-i64:64-i128:128-f80:128-n8:16:32:64-S128"
target triple = "x86_64-pc-linux-gnu"

%struct.WaveFile = type { %struct.WaveChunk, %struct.WaveFormat, %struct.WaveFact, i64, ptr, i32, i32, i32 }
%struct.WaveChunk = type { i32, i32, i64, ptr, i64 }
%struct.WaveFormat = type { i16, i16, i16, i32, i32, i16, i16, i16, i16, i32, i32, [16 x i8] }
%struct.WaveFact = type { i32, i32 }

@.str.55 = private unnamed_addr constant [62 x i8] c"Invalid number of sample frames in WAVE fact chunk (too many)\00", align 1
@.str.66 = private unnamed_addr constant [25 x i8] c"Truncated MS ADPCM block\00", align 1

; Function Attrs: nounwind uwtable
define internal i64 @WaveAdjustToFactValue(ptr noundef %0, i64 noundef %1) #0 {
  %3 = alloca i64, align 8
  %4 = alloca ptr, align 8
  %5 = alloca i64, align 8
  store ptr %0, ptr %4, align 8
  store i64 %1, ptr %5, align 8
  %6 = load ptr, ptr %4, align 8
  %7 = getelementptr inbounds nuw %struct.WaveFile, ptr %6, i32 0, i32 2
  %8 = getelementptr inbounds nuw %struct.WaveFact, ptr %7, i32 0, i32 0
  %9 = load i32, ptr %8, align 8
  %10 = icmp eq i32 %9, 2
  br i1 %10, label %11, label %42

11:                                               ; preds = %2
  %12 = load ptr, ptr %4, align 8
  %13 = getelementptr inbounds nuw %struct.WaveFile, ptr %12, i32 0, i32 7
  %14 = load i32, ptr %13, align 8
  %15 = icmp eq i32 %14, 2
  br i1 %15, label %16, label %26

16:                                               ; preds = %11
  %17 = load i64, ptr %5, align 8
  %18 = load ptr, ptr %4, align 8
  %19 = getelementptr inbounds nuw %struct.WaveFile, ptr %18, i32 0, i32 2
  %20 = getelementptr inbounds nuw %struct.WaveFact, ptr %19, i32 0, i32 1
  %21 = load i32, ptr %20, align 4
  %22 = zext i32 %21 to i64
  %23 = icmp slt i64 %17, %22
  br i1 %23, label %24, label %26

24:                                               ; preds = %16
  %25 = call zeroext i1 (ptr, ...) @SDL_SetError_REAL(ptr noundef @.str.55)
  store i64 -1, ptr %3, align 8
  br label %44

26:                                               ; preds = %16, %11
  %27 = load i64, ptr %5, align 8
  %28 = load ptr, ptr %4, align 8
  %29 = getelementptr inbounds nuw %struct.WaveFile, ptr %28, i32 0, i32 2
  %30 = getelementptr inbounds nuw %struct.WaveFact, ptr %29, i32 0, i32 1
  %31 = load i32, ptr %30, align 4
  %32 = zext i32 %31 to i64
  %33 = icmp sgt i64 %27, %32
  br i1 %33, label %34, label %40

34:                                               ; preds = %26
  %35 = load ptr, ptr %4, align 8
  %36 = getelementptr inbounds nuw %struct.WaveFile, ptr %35, i32 0, i32 2
  %37 = getelementptr inbounds nuw %struct.WaveFact, ptr %36, i32 0, i32 1
  %38 = load i32, ptr %37, align 4
  %39 = zext i32 %38 to i64
  store i64 %39, ptr %3, align 8
  br label %44

40:                                               ; preds = %26
  br label %41

41:                                               ; preds = %40
  br label %42

42:                                               ; preds = %41, %2
  %43 = load i64, ptr %5, align 8
  store i64 %43, ptr %3, align 8
  br label %44

44:                                               ; preds = %42, %34, %24
  %45 = load i64, ptr %3, align 8
  ret i64 %45
}

; Function Attrs: nounwind uwtable
define internal zeroext i1 @MS_ADPCM_CalculateSampleFrames(ptr noundef %0, i64 noundef %1) #0 {
  %3 = alloca i1, align 1
  %4 = alloca ptr, align 8
  %5 = alloca i64, align 8
  %6 = alloca ptr, align 8
  %7 = alloca i64, align 8
  %8 = alloca i64, align 8
  %9 = alloca i64, align 8
  %10 = alloca i64, align 8
  %11 = alloca i32, align 4
  %12 = alloca i64, align 8
  store ptr %0, ptr %4, align 8
  store i64 %1, ptr %5, align 8
  call void @llvm.lifetime.start.p0(i64 8, ptr %6) #7
  %13 = load ptr, ptr %4, align 8
  %14 = getelementptr inbounds nuw %struct.WaveFile, ptr %13, i32 0, i32 1
  store ptr %14, ptr %6, align 8
  call void @llvm.lifetime.start.p0(i64 8, ptr %7) #7
  %15 = load ptr, ptr %4, align 8
  %16 = getelementptr inbounds nuw %struct.WaveFile, ptr %15, i32 0, i32 1
  %17 = getelementptr inbounds nuw %struct.WaveFormat, ptr %16, i32 0, i32 2
  %18 = load i16, ptr %17, align 4
  %19 = zext i16 %18 to i64
  %20 = mul i64 %19, 7
  store i64 %20, ptr %7, align 8
  call void @llvm.lifetime.start.p0(i64 8, ptr %8) #7
  %21 = load i64, ptr %5, align 8
  %22 = load ptr, ptr %4, align 8
  %23 = getelementptr inbounds nuw %struct.WaveFile, ptr %22, i32 0, i32 1
  %24 = getelementptr inbounds nuw %struct.WaveFormat, ptr %23, i32 0, i32 5
  %25 = load i16, ptr %24, align 8
  %26 = zext i16 %25 to i64
  %27 = udiv i64 %21, %26
  store i64 %27, ptr %8, align 8
  call void @llvm.lifetime.start.p0(i64 8, ptr %9) #7
  %28 = load ptr, ptr %4, align 8
  %29 = getelementptr inbounds nuw %struct.WaveFile, ptr %28, i32 0, i32 1
  %30 = getelementptr inbounds nuw %struct.WaveFormat, ptr %29, i32 0, i32 6
  %31 = load i16, ptr %30, align 2
  %32 = zext i16 %31 to i64
  %33 = load ptr, ptr %4, align 8
  %34 = getelementptr inbounds nuw %struct.WaveFile, ptr %33, i32 0, i32 1
  %35 = getelementptr inbounds nuw %struct.WaveFormat, ptr %34, i32 0, i32 2
  %36 = load i16, ptr %35, align 4
  %37 = zext i16 %36 to i64
  %38 = mul i64 %32, %37
  store i64 %38, ptr %9, align 8
  call void @llvm.lifetime.start.p0(i64 8, ptr %10) #7
  %39 = load i64, ptr %5, align 8
  %40 = load ptr, ptr %4, align 8
  %41 = getelementptr inbounds nuw %struct.WaveFile, ptr %40, i32 0, i32 1
  %42 = getelementptr inbounds nuw %struct.WaveFormat, ptr %41, i32 0, i32 5
  %43 = load i16, ptr %42, align 8
  %44 = zext i16 %43 to i64
  %45 = urem i64 %39, %44
  store i64 %45, ptr %10, align 8
  %46 = load ptr, ptr %4, align 8
  %47 = getelementptr inbounds nuw %struct.WaveFile, ptr %46, i32 0, i32 6
  %48 = load i32, ptr %47, align 4
  %49 = icmp eq i32 %48, 1
  br i1 %49, label %55, label %50

50:                                               ; preds = %2
  %51 = load ptr, ptr %4, align 8
  %52 = getelementptr inbounds nuw %struct.WaveFile, ptr %51, i32 0, i32 6
  %53 = load i32, ptr %52, align 4
  %54 = icmp eq i32 %53, 2
  br i1 %54, label %55, label %65

55:                                               ; preds = %50, %2
  %56 = load i64, ptr %5, align 8
  %57 = load i64, ptr %7, align 8
  %58 = icmp ult i64 %56, %57
  br i1 %58, label %62, label %59

59:                                               ; preds = %55
  %60 = load i64, ptr %10, align 8
  %61 = icmp ugt i64 %60, 0
  br i1 %61, label %62, label %64

62:                                               ; preds = %59, %55
  %63 = call zeroext i1 (ptr, ...) @SDL_SetError_REAL(ptr noundef @.str.66)
  store i1 %63, ptr %3, align 1
  store i32 1, ptr %11, align 4
  br label %126

64:                                               ; preds = %59
  br label %65

65:                                               ; preds = %64, %50
  %66 = load i64, ptr %8, align 8
  %67 = load ptr, ptr %6, align 8
  %68 = getelementptr inbounds nuw %struct.WaveFormat, ptr %67, i32 0, i32 9
  %69 = load i32, ptr %68, align 4
  %70 = zext i32 %69 to i64
  %71 = mul nsw i64 %66, %70
  %72 = load ptr, ptr %4, align 8
  %73 = getelementptr inbounds nuw %struct.WaveFile, ptr %72, i32 0, i32 3
  store i64 %71, ptr %73, align 8
  %74 = load i64, ptr %10, align 8
  %75 = icmp ugt i64 %74, 0
  br i1 %75, label %76, label %112

76:                                               ; preds = %65
  %77 = load ptr, ptr %4, align 8
  %78 = getelementptr inbounds nuw %struct.WaveFile, ptr %77, i32 0, i32 6
  %79 = load i32, ptr %78, align 4
  %80 = icmp eq i32 %79, 3
  br i1 %80, label %81, label %111

81:                                               ; preds = %76
  %82 = load i64, ptr %10, align 8
  %83 = load i64, ptr %7, align 8
  %84 = icmp uge i64 %82, %83
  br i1 %84, label %85, label %110

85:                                               ; preds = %81
  call void @llvm.lifetime.start.p0(i64 8, ptr %12) #7
  %86 = load i64, ptr %10, align 8
  %87 = load i64, ptr %7, align 8
  %88 = sub i64 %86, %87
  %89 = mul i64 %88, 8
  %90 = load i64, ptr %9, align 8
  %91 = udiv i64 %89, %90
  %92 = add i64 2, %91
  store i64 %92, ptr %12, align 8
  %93 = load i64, ptr %12, align 8
  %94 = load ptr, ptr %6, align 8
  %95 = getelementptr inbounds nuw %struct.WaveFormat, ptr %94, i32 0, i32 9
  %96 = load i32, ptr %95, align 4
  %97 = zext i32 %96 to i64
  %98 = icmp ugt i64 %93, %97
  br i1 %98, label %99, label %104

99:                                               ; preds = %85
  %100 = load ptr, ptr %6, align 8
  %101 = getelementptr inbounds nuw %struct.WaveFormat, ptr %100, i32 0, i32 9
  %102 = load i32, ptr %101, align 4
  %103 = zext i32 %102 to i64
  store i64 %103, ptr %12, align 8
  br label %104

104:                                              ; preds = %99, %85
  %105 = load i64, ptr %12, align 8
  %106 = load ptr, ptr %4, align 8
  %107 = getelementptr inbounds nuw %struct.WaveFile, ptr %106, i32 0, i32 3
  %108 = load i64, ptr %107, align 8
  %109 = add i64 %108, %105
  store i64 %109, ptr %107, align 8
  call void @llvm.lifetime.end.p0(i64 8, ptr %12) #7
  br label %110

110:                                              ; preds = %104, %81
  br label %111

111:                                              ; preds = %110, %76
  br label %112

112:                                              ; preds = %111, %65
  %113 = load ptr, ptr %4, align 8
  %114 = load ptr, ptr %4, align 8
  %115 = getelementptr inbounds nuw %struct.WaveFile, ptr %114, i32 0, i32 3
  %116 = load i64, ptr %115, align 8
  %117 = call i64 @WaveAdjustToFactValue(ptr noundef %113, i64 noundef %116)
  %118 = load ptr, ptr %4, align 8
  %119 = getelementptr inbounds nuw %struct.WaveFile, ptr %118, i32 0, i32 3
  store i64 %117, ptr %119, align 8
  %120 = load ptr, ptr %4, align 8
  %121 = getelementptr inbounds nuw %struct.WaveFile, ptr %120, i32 0, i32 3
  %122 = load i64, ptr %121, align 8
  %123 = icmp slt i64 %122, 0
  br i1 %123, label %124, label %125

124:                                              ; preds = %112
  store i1 false, ptr %3, align 1
  store i32 1, ptr %11, align 4
  br label %126

125:                                              ; preds = %112
  store i1 true, ptr %3, align 1
  store i32 1, ptr %11, align 4
  br label %126

126:                                              ; preds = %125, %124, %62
  call void @llvm.lifetime.end.p0(i64 8, ptr %10) #7
  call void @llvm.lifetime.end.p0(i64 8, ptr %9) #7
  call void @llvm.lifetime.end.p0(i64 8, ptr %8) #7
  call void @llvm.lifetime.end.p0(i64 8, ptr %7) #7
  call void @llvm.lifetime.end.p0(i64 8, ptr %6) #7
  %127 = load i1, ptr %3, align 1
  ret i1 %127
}