; Function Attrs: nounwind uwtable
define internal fastcc zeroext i1 @MS_ADPCM_CalculateSampleFrames(ptr noundef nonnull captures(none) %0, i64 noundef %1) unnamed_addr #0 {
  %3 = getelementptr inbounds nuw i8, ptr %0, i64 36
  %4 = load i16, ptr %3, align 4
  %5 = zext i16 %4 to i64
  %6 = mul nuw nsw i64 %5, 7
  %7 = getelementptr inbounds nuw i8, ptr %0, i64 48
  %8 = load i16, ptr %7, align 8
  %9 = zext i16 %8 to i64
  %10 = udiv i64 %1, %9
  %11 = getelementptr inbounds nuw i8, ptr %0, i64 50
  %12 = load i16, ptr %11, align 2
  %13 = zext i16 %12 to i64
  %14 = mul nuw nsw i64 %13, %5
  %15 = urem i64 %1, %9
  %16 = getelementptr inbounds nuw i8, ptr %0, i64 108
  %17 = load i32, ptr %16, align 4
  %.off = add i32 %17, -1
  %switch = icmp ult i32 %.off, 2
  br i1 %switch, label %18, label %28

18:                                               ; preds = %2
  %19 = icmp ult i64 %1, %6
  %20 = icmp ne i64 %15, 0
  %or.cond = or i1 %19, %20
  br i1 %or.cond, label %26, label %.thread

.thread:                                          ; preds = %18
  %21 = getelementptr inbounds nuw i8, ptr %0, i64 56
  %22 = load i32, ptr %21, align 4
  %23 = zext i32 %22 to i64
  %24 = mul nsw i64 %10, %23
  %25 = getelementptr inbounds nuw i8, ptr %0, i64 88
  store i64 %24, ptr %25, align 8
  br label %thread-pre-split

26:                                               ; preds = %18
  %27 = tail call zeroext i1 (ptr, ...) @SDL_SetError_REAL(ptr noundef nonnull @.str.66) #8
  br label %58

28:                                               ; preds = %2
  %29 = getelementptr inbounds nuw i8, ptr %0, i64 56
  %30 = load i32, ptr %29, align 4
  %31 = zext i32 %30 to i64
  %32 = mul nsw i64 %10, %31
  %33 = getelementptr inbounds nuw i8, ptr %0, i64 88
  store i64 %32, ptr %33, align 8
  %.not = icmp eq i64 %15, 0
  br i1 %.not, label %thread-pre-split, label %34

34:                                               ; preds = %28
  %35 = icmp ne i32 %17, 3
  %.not39 = icmp samesign ult i64 %15, %6
  %or.cond40 = select i1 %35, i1 true, i1 %.not39
  br i1 %or.cond40, label %thread-pre-split, label %36

36:                                               ; preds = %34
  %37 = sub nuw nsw i64 %15, %6
  %.tr = trunc nuw nsw i64 %37 to i32
  %.lhs.trunc = shl nuw nsw i32 %.tr, 3
  %.rhs.trunc = trunc nuw i64 %14 to i32
  %38 = udiv i32 %.lhs.trunc, %.rhs.trunc
  %narrow = add nuw nsw i32 %38, 2
  %39 = tail call i32 @llvm.umin.i32(i32 %narrow, i32 %30)
  %spec.select = zext nneg i32 %39 to i64
  %40 = add i64 %32, %spec.select
  store i64 %40, ptr %33, align 8
  br label %thread-pre-split

thread-pre-split:                                 ; preds = %34, %.thread, %36, %28
  %41 = phi i64 [ %24, %.thread ], [ %40, %36 ], [ %32, %28 ], [ %32, %34 ]
  %42 = phi ptr [ %25, %.thread ], [ %33, %36 ], [ %33, %28 ], [ %33, %34 ]
  %.fr = freeze i64 %41
  %43 = getelementptr inbounds nuw i8, ptr %0, i64 80
  %44 = load i32, ptr %43, align 8
  %45 = icmp eq i32 %44, 2
  br i1 %45, label %46, label %WaveAdjustToFactValue.exit

46:                                               ; preds = %thread-pre-split
  %47 = getelementptr inbounds nuw i8, ptr %0, i64 112
  %48 = load i32, ptr %47, align 8
  %49 = icmp eq i32 %48, 2
  %50 = getelementptr inbounds nuw i8, ptr %0, i64 84
  %51 = load i32, ptr %50, align 4
  %52 = zext i32 %51 to i64
  %53 = icmp slt i64 %.fr, %52
  %or.cond.i = select i1 %49, i1 %53, i1 false
  br i1 %or.cond.i, label %WaveAdjustToFactValue.exit.thread, label %._crit_edge.i

WaveAdjustToFactValue.exit.thread:                ; preds = %46
  %54 = tail call zeroext i1 (ptr, ...) @SDL_SetError_REAL(ptr noundef nonnull @.str.55) #8
  store i64 -1, ptr %42, align 8
  br label %57

._crit_edge.i:                                    ; preds = %46
  %55 = icmp sgt i64 %.fr, %52
  br i1 %55, label %WaveAdjustToFactValue.exit.thread44, label %WaveAdjustToFactValue.exit

WaveAdjustToFactValue.exit.thread44:              ; preds = %._crit_edge.i
  store i64 %52, ptr %42, align 8
  br label %58

WaveAdjustToFactValue.exit:                       ; preds = %thread-pre-split, %._crit_edge.i
  store i64 %.fr, ptr %42, align 8
  %56 = icmp slt i64 %.fr, 0
  br i1 %56, label %57, label %58

57:                                               ; preds = %WaveAdjustToFactValue.exit.thread, %WaveAdjustToFactValue.exit
  br label %58

58:                                               ; preds = %57, %WaveAdjustToFactValue.exit, %WaveAdjustToFactValue.exit.thread44, %26
  %.033 = phi i1 [ %27, %26 ], [ false, %57 ], [ true, %WaveAdjustToFactValue.exit ], [ true, %WaveAdjustToFactValue.exit.thread44 ]
  ret i1 %.033
}